target datalayout = "e-m:e-p270:32:32-p271:32:32-p272:64:64-i64:64-i128:128-f80:128-n8:16:32:64-S128"
target triple = "x86_64-pc-linux-gnu"

%struct.ChaChaPoly_Aead = type { %struct.ChaCha, %struct.Poly1305, i32, i32, i8, i8 }
%struct.ChaCha = type { [16 x i32], i32 }
%struct.Poly1305 = type { [3 x i64], [3 x i64], [2 x i64], i64, [16 x i8], i8 }

; Function Attrs: nounwind uwtable
define i32 @wc_ChaCha20Poly1305_UpdateAad(ptr noundef %0, ptr noundef %1, i32 noundef %2) #0 {
  %4 = alloca i32, align 4
  %5 = alloca ptr, align 8
  %6 = alloca ptr, align 8
  %7 = alloca i32, align 4
  %8 = alloca i32, align 4
  %9 = alloca i32, align 4
  store ptr %0, ptr %5, align 8, !tbaa !10
  store ptr %1, ptr %6, align 8, !tbaa !3
  store i32 %2, ptr %7, align 4, !tbaa !8
  call void @llvm.lifetime.start.p0(i64 4, ptr %8) #5
  store i32 0, ptr %8, align 4, !tbaa !8
  %10 = load ptr, ptr %5, align 8, !tbaa !10
  %11 = icmp eq ptr %10, null
  br i1 %11, label %18, label %12

12:                                               ; preds = %3
  %13 = load ptr, ptr %6, align 8, !tbaa !3
  %14 = icmp eq ptr %13, null
  br i1 %14, label %15, label %19

15:                                               ; preds = %12
  %16 = load i32, ptr %7, align 4, !tbaa !8
  %17 = icmp ugt i32 %16, 0
  br i1 %17, label %18, label %19

18:                                               ; preds = %15, %3
  store i32 -173, ptr %4, align 4
  store i32 1, ptr %9, align 4
  br label %65

19:                                               ; preds = %15, %12
  %20 = load ptr, ptr %5, align 8, !tbaa !10
  %21 = getelementptr inbounds nuw %struct.ChaChaPoly_Aead, ptr %20, i32 0, i32 4
  %22 = load i8, ptr %21, align 8, !tbaa !12
  %23 = zext i8 %22 to i32
  %24 = icmp ne i32 %23, 1
  br i1 %24, label %25, label %32

25:                                               ; preds = %19
  %26 = load ptr, ptr %5, align 8, !tbaa !10
  %27 = getelementptr inbounds nuw %struct.ChaChaPoly_Aead, ptr %26, i32 0, i32 4
  %28 = load i8, ptr %27, align 8, !tbaa !12
  %29 = zext i8 %28 to i32
  %30 = icmp ne i32 %29, 2
  br i1 %30, label %31, label %32

31:                                               ; preds = %25
  store i32 -192, ptr %4, align 4
  store i32 1, ptr %9, align 4
  br label %65

32:                                               ; preds = %25, %19
  %33 = load i32, ptr %7, align 4, !tbaa !8
  %34 = load ptr, ptr %5, align 8, !tbaa !10
  %35 = getelementptr inbounds nuw %struct.ChaChaPoly_Aead, ptr %34, i32 0, i32 2
  %36 = load i32, ptr %35, align 8, !tbaa !17
  %37 = sub i32 -1, %36
  %38 = icmp ugt i32 %33, %37
  br i1 %38, label %39, label %40

39:                                               ; preds = %32
  store i32 -274, ptr %4, align 4
  store i32 1, ptr %9, align 4
  br label %65

40:                                               ; preds = %32
  %41 = load ptr, ptr %6, align 8, !tbaa !3
  %42 = icmp ne ptr %41, null
  br i1 %42, label %43, label %63

43:                                               ; preds = %40
  %44 = load i32, ptr %7, align 4, !tbaa !8
  %45 = icmp ugt i32 %44, 0
  br i1 %45, label %46, label %63

46:                                               ; preds = %43
  %47 = load ptr, ptr %5, align 8, !tbaa !10
  %48 = getelementptr inbounds nuw %struct.ChaChaPoly_Aead, ptr %47, i32 0, i32 1
  %49 = load ptr, ptr %6, align 8, !tbaa !3
  %50 = load i32, ptr %7, align 4, !tbaa !8
  %51 = call i32 @wc_Poly1305Update(ptr noundef %48, ptr noundef %49, i32 noundef %50)
  store i32 %51, ptr %8, align 4, !tbaa !8
  %52 = load i32, ptr %8, align 4, !tbaa !8
  %53 = icmp eq i32 %52, 0
  br i1 %53, label %54, label %62

54:                                               ; preds = %46
  %55 = load i32, ptr %7, align 4, !tbaa !8
  %56 = load ptr, ptr %5, align 8, !tbaa !10
  %57 = getelementptr inbounds nuw %struct.ChaChaPoly_Aead, ptr %56, i32 0, i32 2
  %58 = load i32, ptr %57, align 8, !tbaa !17
  %59 = add i32 %58, %55
  store i32 %59, ptr %57, align 8, !tbaa !17
  %60 = load ptr, ptr %5, align 8, !tbaa !10
  %61 = getelementptr inbounds nuw %struct.ChaChaPoly_Aead, ptr %60, i32 0, i32 4
  store i8 2, ptr %61, align 8, !tbaa !12
  br label %62

62:                                               ; preds = %54, %46
  br label %63

63:                                               ; preds = %62, %43, %40
  %64 = load i32, ptr %8, align 4, !tbaa !8
  store i32 %64, ptr %4, align 4
  store i32 1, ptr %9, align 4
  br label %65

65:                                               ; preds = %63, %39, %31, %18
  call void @llvm.lifetime.end.p0(i64 4, ptr %8) #5
  %66 = load i32, ptr %4, align 4
  ret i32 %66
}

; Function Attrs: nounwind uwtable
define i32 @wc_ChaCha20Poly1305_Encrypt(ptr noundef %0, ptr noundef %1, ptr noundef %2, i32 noundef %3, ptr noundef %4, i32 noundef %5, ptr noundef %6, ptr noundef %7) #0 {
  %9 = alloca i32, align 4
  %10 = alloca ptr, align 8
  %11 = alloca ptr, align 8
  %12 = alloca ptr, align 8
  %13 = alloca i32, align 4
  %14 = alloca ptr, align 8
  %15 = alloca i32, align 4
  %16 = alloca ptr, align 8
  %17 = alloca ptr, align 8
  %18 = alloca i32, align 4
  %19 = alloca [1 x %struct.ChaChaPoly_Aead], align 16
  %20 = alloca i32, align 4
  store ptr %0, ptr %10, align 8, !tbaa !3
  store ptr %1, ptr %11, align 8, !tbaa !3
  store ptr %2, ptr %12, align 8, !tbaa !3
  store i32 %3, ptr %13, align 4, !tbaa !8
  store ptr %4, ptr %14, align 8, !tbaa !3
  store i32 %5, ptr %15, align 4, !tbaa !8
  store ptr %6, ptr %16, align 8, !tbaa !3
  store ptr %7, ptr %17, align 8, !tbaa !3
  call void @llvm.lifetime.start.p0(i64 4, ptr %18) #5
  call void @llvm.lifetime.start.p0(i64 184, ptr %19) #5
  %21 = load ptr, ptr %10, align 8, !tbaa !3
  %22 = icmp ne ptr %21, null
  br i1 %22, label %23, label %38

23:                                               ; preds = %8
  %24 = load ptr, ptr %11, align 8, !tbaa !3
  %25 = icmp ne ptr %24, null
  br i1 %25, label %26, label %38

26:                                               ; preds = %23
  %27 = load i32, ptr %15, align 4, !tbaa !8
  %28 = icmp ugt i32 %27, 0
  br i1 %28, label %29, label %32

29:                                               ; preds = %26
  %30 = load ptr, ptr %14, align 8, !tbaa !3
  %31 = icmp eq ptr %30, null
  br i1 %31, label %38, label %32

32:                                               ; preds = %29, %26
  %33 = load ptr, ptr %16, align 8, !tbaa !3
  %34 = icmp ne ptr %33, null
  br i1 %34, label %35, label %38

35:                                               ; preds = %32
  %36 = load ptr, ptr %17, align 8, !tbaa !3
  %37 = icmp ne ptr %36, null
  br i1 %37, label %39, label %38

38:                                               ; preds = %35, %32, %29, %23, %8
  store i32 -173, ptr %9, align 4
  store i32 1, ptr %20, align 4
  br label %69

39:                                               ; preds = %35
  %40 = getelementptr inbounds [1 x %struct.ChaChaPoly_Aead], ptr %19, i64 0, i64 0
  %41 = load ptr, ptr %10, align 8, !tbaa !3
  %42 = load ptr, ptr %11, align 8, !tbaa !3
  %43 = call i32 @wc_ChaCha20Poly1305_Init(ptr noundef %40, ptr noundef %41, ptr noundef %42, i32 noundef 1)
  store i32 %43, ptr %18, align 4, !tbaa !8
  %44 = load i32, ptr %18, align 4, !tbaa !8
  %45 = icmp eq i32 %44, 0
  br i1 %45, label %46, label %51

46:                                               ; preds = %39
  %47 = getelementptr inbounds [1 x %struct.ChaChaPoly_Aead], ptr %19, i64 0, i64 0
  %48 = load ptr, ptr %12, align 8, !tbaa !3
  %49 = load i32, ptr %13, align 4, !tbaa !8
  %50 = call i32 @wc_ChaCha20Poly1305_UpdateAad(ptr noundef %47, ptr noundef %48, i32 noundef %49)
  store i32 %50, ptr %18, align 4, !tbaa !8
  br label %51

51:                                               ; preds = %46, %39
  %52 = load i32, ptr %18, align 4, !tbaa !8
  %53 = icmp eq i32 %52, 0
  br i1 %53, label %54, label %60

54:                                               ; preds = %51
  %55 = getelementptr inbounds [1 x %struct.ChaChaPoly_Aead], ptr %19, i64 0, i64 0
  %56 = load ptr, ptr %14, align 8, !tbaa !3
  %57 = load ptr, ptr %16, align 8, !tbaa !3
  %58 = load i32, ptr %15, align 4, !tbaa !8
  %59 = call i32 @wc_ChaCha20Poly1305_UpdateData(ptr noundef %55, ptr noundef %56, ptr noundef %57, i32 noundef %58)
  store i32 %59, ptr %18, align 4, !tbaa !8
  br label %60

60:                                               ; preds = %54, %51
  %61 = load i32, ptr %18, align 4, !tbaa !8
  %62 = icmp eq i32 %61, 0
  br i1 %62, label %63, label %67

63:                                               ; preds = %60
  %64 = getelementptr inbounds [1 x %struct.ChaChaPoly_Aead], ptr %19, i64 0, i64 0
  %65 = load ptr, ptr %17, align 8, !tbaa !3
  %66 = call i32 @wc_ChaCha20Poly1305_Final(ptr noundef %64, ptr noundef %65)
  store i32 %66, ptr %18, align 4, !tbaa !8
  br label %67

67:                                               ; preds = %63, %60
  %68 = load i32, ptr %18, align 4, !tbaa !8
  store i32 %68, ptr %9, align 4
  store i32 1, ptr %20, align 4
  br label %69

69:                                               ; preds = %67, %38
  call void @llvm.lifetime.end.p0(i64 184, ptr %19) #5
  call void @llvm.lifetime.end.p0(i64 4, ptr %18) #5
  %70 = load i32, ptr %9, align 4
  ret i32 %70
}