; Function Attrs: nounwind uwtable
define i32 @wc_ChaCha20Poly1305_Encrypt(ptr noundef %0, ptr noundef %1, ptr noundef %2, i32 noundef %3, ptr noundef %4, i32 noundef %5, ptr noundef %6, ptr noundef %7) local_unnamed_addr #0 {
  %9 = alloca [1 x %struct.ChaChaPoly_Aead], align 16
  call void @llvm.lifetime.start.p0(i64 184, ptr nonnull %9) #5
  %10 = icmp ne ptr %0, null
  %11 = icmp ne ptr %1, null
  %or.cond = and i1 %10, %11
  br i1 %or.cond, label %12, label %.thread

12:                                               ; preds = %8
  %13 = icmp eq i32 %5, 0
  %14 = icmp ne ptr %4, null
  %or.cond3.not32 = or i1 %14, %13
  %15 = icmp ne ptr %6, null
  %or.cond5 = and i1 %or.cond3.not32, %15
  %16 = icmp ne ptr %7, null
  %or.cond7 = and i1 %or.cond5, %16
  br i1 %or.cond7, label %17, label %.thread

17:                                               ; preds = %12
  %18 = call i32 @wc_ChaCha20Poly1305_Init(ptr noundef nonnull %9, ptr noundef nonnull %0, ptr noundef nonnull %1, i32 noundef 1)
  %19 = icmp eq i32 %18, 0
  br i1 %19, label %20, label %.thread

20:                                               ; preds = %17
  %21 = icmp eq ptr %2, null
  %22 = icmp ne i32 %3, 0
  %or.cond.i = and i1 %21, %22
  br i1 %or.cond.i, label %.thread, label %23

23:                                               ; preds = %20
  %24 = getelementptr inbounds nuw i8, ptr %9, i64 176
  %25 = load i8, ptr %24, align 16, !tbaa !3
  %.off.i = add i8 %25, -1
  %switch.i = icmp ult i8 %.off.i, 2
  br i1 %switch.i, label %26, label %.thread

26:                                               ; preds = %23
  %27 = getelementptr inbounds nuw i8, ptr %9, i64 168
  %28 = load i32, ptr %27, align 8, !tbaa !11
  %29 = xor i32 %28, -1
  %30 = icmp ugt i32 %3, %29
  br i1 %30, label %.thread, label %31

31:                                               ; preds = %26
  %32 = icmp ne ptr %2, null
  %or.cond3.i = and i1 %32, %22
  br i1 %or.cond3.i, label %33, label %40

33:                                               ; preds = %31
  %34 = getelementptr inbounds nuw i8, ptr %9, i64 72
  %35 = call i32 @wc_Poly1305Update(ptr noundef nonnull %34, ptr noundef nonnull %2, i32 noundef %3) #5
  %36 = icmp eq i32 %35, 0
  br i1 %36, label %37, label %.thread

37:                                               ; preds = %33
  %38 = load i32, ptr %27, align 8, !tbaa !11
  %39 = add i32 %38, %3
  store i32 %39, ptr %27, align 8, !tbaa !11
  store i8 2, ptr %24, align 16, !tbaa !3
  br label %40

40:                                               ; preds = %37, %31
  %41 = call i32 @wc_ChaCha20Poly1305_UpdateData(ptr noundef nonnull %9, ptr noundef %4, ptr noundef nonnull %6, i32 noundef %5)
  %42 = icmp eq i32 %41, 0
  br i1 %42, label %43, label %.thread

43:                                               ; preds = %40
  %44 = call i32 @wc_ChaCha20Poly1305_Final(ptr noundef nonnull %9, ptr noundef nonnull %7)
  br label %.thread

.thread:                                          ; preds = %17, %20, %23, %26, %33, %40, %43, %8, %12
  %.025 = phi i32 [ -173, %12 ], [ -173, %8 ], [ %44, %43 ], [ %41, %40 ], [ %35, %33 ], [ -274, %26 ], [ -192, %23 ], [ -173, %20 ], [ %18, %17 ]
  call void @llvm.lifetime.end.p0(i64 184, ptr nonnull %9) #5
  ret i32 %.025
}